; Function Attrs: nounwind uwtable
define ptr @l___private_Lean_Data_FuzzyMatching_0__Lean_FuzzyMatching_fuzzyMatchCore_getMatch(ptr noundef readonly captures(none) %0, ptr noundef readonly captures(none) %1, ptr noundef %2, ptr noundef %3) local_unnamed_addr #0 {
  %5 = tail call ptr @l___private_Lean_Data_FuzzyMatching_0__Lean_FuzzyMatching_fuzzyMatchCore_getDoubleIdx(ptr noundef %0, ptr noundef %2, ptr noundef %3)
  %6 = ptrtoint ptr %5 to i64
  %7 = and i64 %6, 1
  %.not = icmp eq i64 %7, 0
  br i1 %.not, label %18, label %8, !prof !4

8:                                                ; preds = %4
  %9 = lshr i64 %6, 1
  %10 = add nuw i64 %9, 1
  %11 = icmp sgt i64 %10, -1
  br i1 %11, label %12, label %16, !prof !10

12:                                               ; preds = %8
  %13 = shl nuw i64 %10, 1
  %14 = or disjoint i64 %13, 1
  %15 = inttoptr i64 %14 to ptr
  br label %lean_dec.exit11

16:                                               ; preds = %8
  %17 = tail call ptr @lean_big_usize_to_nat(i64 noundef range(i64 0, -1) %10) #7
  br label %lean_dec.exit11

18:                                               ; preds = %4
  %19 = tail call ptr @lean_nat_big_add(ptr noundef %5, ptr noundef nonnull inttoptr (i64 3 to ptr)) #7
  %20 = load i32, ptr %5, align 4, !tbaa !5
  %21 = icmp sgt i32 %20, 1
  br i1 %21, label %22, label %24, !prof !10

22:                                               ; preds = %18
  %23 = add nsw i32 %20, -1
  store i32 %23, ptr %5, align 4, !tbaa !5
  br label %lean_dec.exit11

24:                                               ; preds = %18
  %.not.i = icmp eq i32 %20, 0
  br i1 %.not.i, label %lean_dec.exit11, label %25

25:                                               ; preds = %24
  tail call void @lean_dec_ref_cold(ptr noundef nonnull %5) #7
  br label %lean_dec.exit11

lean_dec.exit11:                                  ; preds = %12, %16, %25, %24, %22
  %.0.i17 = phi ptr [ %19, %22 ], [ %19, %24 ], [ %19, %25 ], [ %17, %16 ], [ %15, %12 ]
  %26 = ptrtoint ptr %.0.i17 to i64
  %27 = and i64 %26, 1
  %.not.i15 = icmp eq i64 %27, 0
  br i1 %.not.i15, label %45, label %28

28:                                               ; preds = %lean_dec.exit11
  %29 = lshr i64 %26, 1
  %30 = getelementptr i8, ptr %1, i64 8
  %.val.i = load i64, ptr %30, align 8, !tbaa !13
  %31 = icmp ult i64 %29, %.val.i
  br i1 %31, label %33, label %lean_array_get.exit.thread20

lean_array_get.exit.thread20:                     ; preds = %28
  %32 = tail call ptr @lean_array_get_panic(ptr noundef nonnull inttoptr (i64 1 to ptr)) #7
  br label %lean_dec.exit

33:                                               ; preds = %28
  %34 = getelementptr inbounds nuw i8, ptr %1, i64 24
  %35 = getelementptr inbounds nuw [0 x ptr], ptr %34, i64 0, i64 %29
  %36 = load ptr, ptr %35, align 8, !tbaa !11
  %37 = ptrtoint ptr %36 to i64
  %38 = and i64 %37, 1
  %.not.i11.i = icmp eq i64 %38, 0
  br i1 %.not.i11.i, label %39, label %lean_dec.exit

39:                                               ; preds = %33
  %.val.i.i.i = load i32, ptr %36, align 4, !tbaa !5
  %40 = icmp sgt i32 %.val.i.i.i, 0
  br i1 %40, label %41, label %43, !prof !10

41:                                               ; preds = %39
  %42 = add nuw i32 %.val.i.i.i, 1
  store i32 %42, ptr %36, align 4, !tbaa !5
  br label %lean_dec.exit

43:                                               ; preds = %39
  %.not.i.i.i = icmp eq i32 %.val.i.i.i, 0
  br i1 %.not.i.i.i, label %lean_dec.exit, label %44

44:                                               ; preds = %43
  tail call void @lean_inc_ref_cold(ptr noundef nonnull %36) #7
  br label %lean_dec.exit

45:                                               ; preds = %lean_dec.exit11
  %46 = tail call ptr @lean_array_get_panic(ptr noundef nonnull inttoptr (i64 1 to ptr)) #7
  %47 = load i32, ptr %.0.i17, align 4, !tbaa !5
  %48 = icmp sgt i32 %47, 1
  br i1 %48, label %49, label %51, !prof !10

49:                                               ; preds = %45
  %50 = add nsw i32 %47, -1
  store i32 %50, ptr %.0.i17, align 4, !tbaa !5
  br label %lean_dec.exit

51:                                               ; preds = %45
  %.not.i12 = icmp eq i32 %47, 0
  br i1 %.not.i12, label %lean_dec.exit, label %52

52:                                               ; preds = %51
  tail call void @lean_dec_ref_cold(ptr noundef nonnull %.0.i17) #7
  br label %lean_dec.exit

lean_dec.exit:                                    ; preds = %44, %43, %41, %33, %52, %51, %49, %lean_array_get.exit.thread20
  %.1.i19 = phi ptr [ %32, %lean_array_get.exit.thread20 ], [ %46, %49 ], [ %46, %51 ], [ %46, %52 ], [ %36, %33 ], [ %36, %41 ], [ %36, %43 ], [ %36, %44 ]
  ret ptr %.1.i19
}